target datalayout = "e-m:e-p270:32:32-p271:32:32-p272:64:64-i64:64-i128:128-f80:128-n8:16:32:64-S128"
target triple = "x86_64-pc-linux-gnu"

%class.LogTagSet = type { ptr, i64, [5 x i32], [4 x i8], %class.LogOutputList, %class.LogDecorators, ptr }
%class.LogOutputList = type <{ [6 x ptr], i32, [4 x i8] }>
%class.LogDecorators = type { i32 }
%class.ReservedSpace = type <{ ptr, i64, i64, i64, i64, i8, [3 x i8], i32, i8, [7 x i8] }>

@OopEncodingHeapMax = external global i64, align 8
@g_assert_poison = external global ptr, align 8
@.str = private unnamed_addr constant [42 x i8] c"src/hotspot/share/memory/virtualspace.cpp\00", align 1
@.str.4 = private unnamed_addr constant [31 x i8] c"cannot protect protection page\00", align 1
@.str.5 = private unnamed_addr constant [63 x i8] c"Protected page at the reserved heap base: 0x%016lx / %ld bytes\00", align 1
@_ZN16LogTagSetMappingILN6LogTag4typeE49ELS1_52ELS1_27ELS1_0ELS1_0ELS1_0EE7_tagsetE = linkonce_odr hidden global %class.LogTagSet zeroinitializer, comdat, align 8
@_ZN6OSInfo13_vm_page_sizeE = external global i64, align 8

; Function Attrs: mustprogress nounwind uwtable
define linkonce_odr hidden noundef zeroext i1 @_ZNK13LogOutputList8is_levelEN8LogLevel4typeE(ptr noundef nonnull align 8 dereferenceable(52) %0, i32 noundef %1) #1 comdat align 2 {
  %3 = alloca ptr, align 8
  %4 = alloca i32, align 4
  store ptr %0, ptr %3, align 8
  store i32 %1, ptr %4, align 4
  %5 = load ptr, ptr %3, align 8
  %6 = getelementptr inbounds %class.LogOutputList, ptr %5, i32 0, i32 0
  %7 = load i32, ptr %4, align 4
  %8 = zext i32 %7 to i64
  %9 = getelementptr inbounds [6 x ptr], ptr %6, i64 0, i64 %8
  %10 = load volatile ptr, ptr %9, align 8
  %11 = icmp ne ptr %10, null
  ret i1 %11
}

; Function Attrs: mustprogress nounwind uwtable
define linkonce_odr hidden noundef i64 @_ZN6OSInfo12vm_page_sizeEv() #1 comdat align 2 {
  %1 = load i64, ptr @_ZN6OSInfo13_vm_page_sizeE, align 8
  ret i64 %1
}

; Function Attrs: mustprogress nounwind uwtable
define linkonce_odr hidden noundef zeroext i1 @_ZNK9LogTagSet8is_levelEN8LogLevel4typeE(ptr noundef nonnull align 8 dereferenceable(112) %0, i32 noundef %1) #1 comdat align 2 {
  %3 = alloca ptr, align 8
  %4 = alloca i32, align 4
  store ptr %0, ptr %3, align 8
  store i32 %1, ptr %4, align 4
  %5 = load ptr, ptr %3, align 8
  %6 = getelementptr inbounds %class.LogTagSet, ptr %5, i32 0, i32 4
  %7 = load i32, ptr %4, align 4
  %8 = call noundef zeroext i1 @_ZNK13LogOutputList8is_levelEN8LogLevel4typeE(ptr noundef nonnull align 8 dereferenceable(52) %6, i32 noundef %7)
  ret i1 %8
}

; Function Attrs: mustprogress nounwind uwtable
define linkonce_odr hidden noundef nonnull align 8 dereferenceable(112) ptr @_ZN16LogTagSetMappingILN6LogTag4typeE49ELS1_52ELS1_27ELS1_0ELS1_0ELS1_0EE6tagsetEv() #1 comdat align 2 {
  ret ptr @_ZN16LogTagSetMappingILN6LogTag4typeE49ELS1_52ELS1_27ELS1_0ELS1_0ELS1_0EE7_tagsetE
}

; Function Attrs: mustprogress nounwind uwtable
define linkonce_odr hidden noundef i64 @_ZN2os12vm_page_sizeEv() #1 comdat align 2 {
  %1 = call noundef i64 @_ZN6OSInfo12vm_page_sizeEv()
  ret i64 %1
}

; Function Attrs: mustprogress nounwind uwtable
define linkonce_odr hidden noundef i64 @_Z3p2iPVKv(ptr noundef %0) #1 comdat {
  %2 = alloca ptr, align 8
  store ptr %0, ptr %2, align 8
  %3 = load ptr, ptr %2, align 8
  %4 = ptrtoint ptr %3 to i64
  ret i64 %4
}

; Function Attrs: mustprogress nounwind uwtable
define linkonce_odr hidden noundef zeroext i1 @_ZN7LogImplILN6LogTag4typeE49ELS1_52ELS1_27ELS1_0ELS1_0ELS1_0EE8is_levelEN8LogLevel4typeE(i32 noundef %0) #1 comdat align 2 {
  %2 = alloca i32, align 4
  store i32 %0, ptr %2, align 4
  %3 = call noundef nonnull align 8 dereferenceable(112) ptr @_ZN16LogTagSetMappingILN6LogTag4typeE49ELS1_52ELS1_27ELS1_0ELS1_0ELS1_0EE6tagsetEv()
  %4 = load i32, ptr %2, align 4
  %5 = call noundef zeroext i1 @_ZNK9LogTagSet8is_levelEN8LogLevel4typeE(ptr noundef nonnull align 8 dereferenceable(112) %3, i32 noundef %4)
  ret i1 %5
}

; Function Attrs: mustprogress nounwind uwtable
define linkonce_odr hidden noundef ptr @_ZNK13ReservedSpace4baseEv(ptr noundef nonnull align 8 dereferenceable(49) %0) #1 comdat align 2 {
  %2 = alloca ptr, align 8
  store ptr %0, ptr %2, align 8
  %3 = load ptr, ptr %2, align 8
  %4 = getelementptr inbounds %class.ReservedSpace, ptr %3, i32 0, i32 0
  %5 = load ptr, ptr %4, align 8
  ret ptr %5
}

; Function Attrs: mustprogress nounwind uwtable
define internal noundef i64 @_ZL20noaccess_prefix_sizem(i64 noundef %0) #1 {
  %2 = alloca i64, align 8
  store i64 %0, ptr %2, align 8
  %3 = call noundef i64 @_ZN2os12vm_page_sizeEv()
  %4 = load i64, ptr %2, align 8
  %5 = call noundef i64 @_Z3lcmmm(i64 noundef %3, i64 noundef %4)
  ret i64 %5
}

; Function Attrs: mustprogress nounwind uwtable
define hidden void @_ZN17ReservedHeapSpace25establish_noaccess_prefixEv(ptr noundef nonnull align 8 dereferenceable(49) %0) #1 align 2 {
  %2 = alloca ptr, align 8
  store ptr %0, ptr %2, align 8
  %3 = load ptr, ptr %2, align 8
  %4 = getelementptr inbounds %class.ReservedSpace, ptr %3, i32 0, i32 3
  %5 = load i64, ptr %4, align 8
  %6 = call noundef i64 @_ZL20noaccess_prefix_sizem(i64 noundef %5)
  %7 = getelementptr inbounds %class.ReservedSpace, ptr %3, i32 0, i32 2
  store i64 %6, ptr %7, align 8
  %8 = call noundef ptr @_ZNK13ReservedSpace4baseEv(ptr noundef nonnull align 8 dereferenceable(49) %3)
  %9 = icmp ne ptr %8, null
  br i1 %9, label %10, label %41

10:                                               ; preds = %1
  %11 = call noundef ptr @_ZNK13ReservedSpace4baseEv(ptr noundef nonnull align 8 dereferenceable(49) %3)
  %12 = getelementptr inbounds %class.ReservedSpace, ptr %3, i32 0, i32 1
  %13 = load i64, ptr %12, align 8
  %14 = getelementptr inbounds i8, ptr %11, i64 %13
  %15 = load i64, ptr @OopEncodingHeapMax, align 8
  %16 = inttoptr i64 %15 to ptr
  %17 = icmp ugt ptr %14, %16
  br i1 %17, label %18, label %41

18:                                               ; preds = %10
  %19 = getelementptr inbounds %class.ReservedSpace, ptr %3, i32 0, i32 0
  %20 = load ptr, ptr %19, align 8
  %21 = getelementptr inbounds %class.ReservedSpace, ptr %3, i32 0, i32 2
  %22 = load i64, ptr %21, align 8
  %23 = getelementptr inbounds %class.ReservedSpace, ptr %3, i32 0, i32 5
  %24 = load i8, ptr %23, align 8
  %25 = trunc i8 %24 to i1
  %26 = call noundef zeroext i1 @_ZN2os14protect_memoryEPcmNS_8ProtTypeEb(ptr noundef %20, i64 noundef %22, i32 noundef 0, i1 noundef zeroext %25)
  br i1 %26, label %31, label %27

27:                                               ; preds = %18
  br label %28

28:                                               ; preds = %27
  %29 = load ptr, ptr @g_assert_poison, align 8
  store i8 88, ptr %29, align 1
  call void (i32, ptr, i32, ptr, ...) @_Z12report_fatal11VMErrorTypePKciS1_z(i32 noundef -536870912, ptr noundef @.str, i32 noundef 387, ptr noundef @.str.4) #7
  unreachable

30:                                               ; No predecessors!
  br label %31

31:                                               ; preds = %30, %18
  %32 = call noundef zeroext i1 @_ZN7LogImplILN6LogTag4typeE49ELS1_52ELS1_27ELS1_0ELS1_0ELS1_0EE8is_levelEN8LogLevel4typeE(i32 noundef 2)
  br i1 %32, label %34, label %33

33:                                               ; preds = %31
  br label %40

34:                                               ; preds = %31
  %35 = getelementptr inbounds %class.ReservedSpace, ptr %3, i32 0, i32 0
  %36 = load ptr, ptr %35, align 8
  %37 = call noundef i64 @_Z3p2iPVKv(ptr noundef %36)
  %38 = getelementptr inbounds %class.ReservedSpace, ptr %3, i32 0, i32 2
  %39 = load i64, ptr %38, align 8
  call void (ptr, ...) @_ZN7LogImplILN6LogTag4typeE49ELS1_52ELS1_27ELS1_0ELS1_0ELS1_0EE5writeILN8LogLevel4typeE2EEEvPKcz(ptr noundef @.str.5, i64 noundef %37, i64 noundef %39)
  br label %40

40:                                               ; preds = %34, %33
  br label %41

41:                                               ; preds = %40, %10, %1
  %42 = getelementptr inbounds %class.ReservedSpace, ptr %3, i32 0, i32 2
  %43 = load i64, ptr %42, align 8
  %44 = getelementptr inbounds %class.ReservedSpace, ptr %3, i32 0, i32 0
  %45 = load ptr, ptr %44, align 8
  %46 = getelementptr inbounds i8, ptr %45, i64 %43
  store ptr %46, ptr %44, align 8
  %47 = getelementptr inbounds %class.ReservedSpace, ptr %3, i32 0, i32 2
  %48 = load i64, ptr %47, align 8
  %49 = getelementptr inbounds %class.ReservedSpace, ptr %3, i32 0, i32 1
  %50 = load i64, ptr %49, align 8
  %51 = sub i64 %50, %48
  store i64 %51, ptr %49, align 8
  ret void
}