; Function Attrs: mustprogress nounwind uwtable
define hidden void @_ZN17ReservedHeapSpace25establish_noaccess_prefixEv(ptr nocapture noundef nonnull align 8 dereferenceable(49) %0) local_unnamed_addr #1 align 2 {
  %2 = getelementptr inbounds i8, ptr %0, i64 24
  %3 = load i64, ptr %2, align 8
  %4 = load i64, ptr @_ZN6OSInfo13_vm_page_sizeE, align 8
  %5 = tail call noundef i64 @_Z3lcmmm(i64 noundef %4, i64 noundef %3) #13
  %6 = getelementptr inbounds i8, ptr %0, i64 16
  store i64 %5, ptr %6, align 8
  %7 = load ptr, ptr %0, align 8
  %.not = icmp eq ptr %7, null
  br i1 %.not, label %26, label %8

8:                                                ; preds = %1
  %9 = getelementptr inbounds i8, ptr %0, i64 8
  %10 = load i64, ptr %9, align 8
  %11 = getelementptr inbounds i8, ptr %7, i64 %10
  %12 = load i64, ptr @OopEncodingHeapMax, align 8
  %13 = inttoptr i64 %12 to ptr
  %14 = icmp ugt ptr %11, %13
  br i1 %14, label %15, label %26

15:                                               ; preds = %8
  %16 = getelementptr inbounds i8, ptr %0, i64 40
  %17 = load i8, ptr %16, align 8
  %18 = trunc i8 %17 to i1
  %19 = tail call noundef zeroext i1 @_ZN2os14protect_memoryEPcmNS_8ProtTypeEb(ptr noundef nonnull %7, i64 noundef %5, i32 noundef 0, i1 noundef zeroext %18) #13
  br i1 %19, label %22, label %20

20:                                               ; preds = %15
  %21 = load ptr, ptr @g_assert_poison, align 8
  store i8 88, ptr %21, align 1
  tail call void (i32, ptr, i32, ptr, ...) @_Z12report_fatal11VMErrorTypePKciS1_z(i32 noundef -536870912, ptr noundef nonnull @.str, i32 noundef 387, ptr noundef nonnull @.str.4) #14
  unreachable

22:                                               ; preds = %15
  %23 = load volatile ptr, ptr getelementptr inbounds (i8, ptr @_ZN16LogTagSetMappingILN6LogTag4typeE49ELS1_52ELS1_27ELS1_0ELS1_0ELS1_0EE7_tagsetE, i64 56), align 8
  %.not1 = icmp eq ptr %23, null
  %.pre2 = load i64, ptr %6, align 8
  %.pre4 = load ptr, ptr %0, align 8
  br i1 %.not1, label %26, label %24

24:                                               ; preds = %22
  %25 = ptrtoint ptr %.pre4 to i64
  tail call void (ptr, ...) @_ZN7LogImplILN6LogTag4typeE49ELS1_52ELS1_27ELS1_0ELS1_0ELS1_0EE5writeILN8LogLevel4typeE2EEEvPKcz(ptr noundef nonnull @.str.5, i64 noundef %25, i64 noundef %.pre2)
  %.pre = load i64, ptr %6, align 8
  %.pre3 = load ptr, ptr %0, align 8
  br label %26

26:                                               ; preds = %24, %22, %8, %1
  %27 = phi ptr [ %.pre3, %24 ], [ %.pre4, %22 ], [ %7, %8 ], [ null, %1 ]
  %28 = phi i64 [ %.pre, %24 ], [ %.pre2, %22 ], [ %5, %8 ], [ %5, %1 ]
  %29 = getelementptr inbounds i8, ptr %27, i64 %28
  store ptr %29, ptr %0, align 8
  %30 = getelementptr inbounds i8, ptr %0, i64 8
  %31 = load i64, ptr %30, align 8
  %32 = sub i64 %31, %28
  store i64 %32, ptr %30, align 8
  ret void
}